target datalayout = "e-m:e-p270:32:32-p271:32:32-p272:64:64-i64:64-i128:128-f80:128-n8:16:32:64-S128"
target triple = "x86_64-pc-linux-gnu"

%struct.formnode = type { i16, i16, i16, i32, i32, i32, i32, i16, i16, i16, i32, ptr, ptr, ptr, ptr, ptr, ptr, ptr, ptr, ptr, ptr, ptr }
%struct.fieldnode = type { i16, i16, i16, i16, i16, i32, i32, i32, i32, i16, i16, i16, i16, i32, i32, i32, i32, ptr, ptr, ptr, ptr, ptr, ptr, ptr, ptr }

; Function Attrs: nounwind uwtable
define internal ptr @Sorted_Next_Field(ptr noundef %0) #0 {
  %2 = alloca ptr, align 8
  %3 = alloca ptr, align 8
  store ptr %0, ptr %2, align 8, !tbaa !17
  call void @llvm.lifetime.start.p0(i64 8, ptr %3) #9
  %4 = load ptr, ptr %2, align 8, !tbaa !17
  store ptr %4, ptr %3, align 8, !tbaa !17
  br label %5

5:                                                ; preds = %16, %1
  %6 = load ptr, ptr %3, align 8, !tbaa !17
  %7 = getelementptr inbounds nuw %struct.fieldnode, ptr %6, i32 0, i32 17
  %8 = load ptr, ptr %7, align 8, !tbaa !93
  store ptr %8, ptr %3, align 8, !tbaa !17
  %9 = load ptr, ptr %3, align 8, !tbaa !17
  %10 = getelementptr inbounds nuw %struct.fieldnode, ptr %9, i32 0, i32 16
  %11 = load i32, ptr %10, align 8, !tbaa !23
  %12 = and i32 %11, 3
  %13 = icmp eq i32 %12, 3
  br i1 %13, label %14, label %15

14:                                               ; preds = %5
  br label %20

15:                                               ; preds = %5
  br label %16

16:                                               ; preds = %15
  %17 = load ptr, ptr %3, align 8, !tbaa !17
  %18 = load ptr, ptr %2, align 8, !tbaa !17
  %19 = icmp ne ptr %17, %18
  br i1 %19, label %5, label %20, !llvm.loop !120

20:                                               ; preds = %16, %14
  %21 = load ptr, ptr %3, align 8, !tbaa !17
  call void @llvm.lifetime.end.p0(i64 8, ptr %3) #9
  ret ptr %21
}

; Function Attrs: nounwind uwtable
define internal ptr @Right_Neighbour_Field(ptr noundef %0) #0 {
  %2 = alloca ptr, align 8
  %3 = alloca ptr, align 8
  store ptr %0, ptr %2, align 8, !tbaa !17
  call void @llvm.lifetime.start.p0(i64 8, ptr %3) #9
  %4 = load ptr, ptr %2, align 8, !tbaa !17
  store ptr %4, ptr %3, align 8, !tbaa !17
  br label %5

5:                                                ; preds = %8, %1
  %6 = load ptr, ptr %3, align 8, !tbaa !17
  %7 = call ptr @Sorted_Next_Field(ptr noundef %6)
  store ptr %7, ptr %3, align 8, !tbaa !17
  br label %8

8:                                                ; preds = %5
  %9 = load ptr, ptr %3, align 8, !tbaa !17
  %10 = getelementptr inbounds nuw %struct.fieldnode, ptr %9, i32 0, i32 3
  %11 = load i16, ptr %10, align 2, !tbaa !31
  %12 = sext i16 %11 to i32
  %13 = load ptr, ptr %2, align 8, !tbaa !17
  %14 = getelementptr inbounds nuw %struct.fieldnode, ptr %13, i32 0, i32 3
  %15 = load i16, ptr %14, align 2, !tbaa !31
  %16 = sext i16 %15 to i32
  %17 = icmp ne i32 %12, %16
  br i1 %17, label %5, label %18, !llvm.loop !124

18:                                               ; preds = %8
  %19 = load ptr, ptr %3, align 8, !tbaa !17
  call void @llvm.lifetime.end.p0(i64 8, ptr %3) #9
  ret ptr %19
}

; Function Attrs: nounwind uwtable
define internal i32 @FN_Right_Field(ptr noundef %0) #0 {
  %2 = alloca ptr, align 8
  store ptr %0, ptr %2, align 8, !tbaa !4
  %3 = load ptr, ptr %2, align 8, !tbaa !4
  %4 = load ptr, ptr %2, align 8, !tbaa !4
  %5 = getelementptr inbounds nuw %struct.formnode, ptr %4, i32 0, i32 15
  %6 = load ptr, ptr %5, align 8, !tbaa !16
  %7 = call ptr @Right_Neighbour_Field(ptr noundef %6)
  %8 = call i32 @_nc_Set_Current_Field(ptr noundef %3, ptr noundef %7)
  ret i32 %8
}