; Function Attrs: nounwind uwtable
define internal range(i32 -11, 1) i32 @FN_Right_Field(ptr noundef %0) #0 {
  %2 = getelementptr inbounds nuw i8, ptr %0, i64 72
  %3 = load ptr, ptr %2, align 8, !tbaa !14
  %4 = getelementptr inbounds nuw i8, ptr %3, i64 6
  %5 = load i16, ptr %4, align 2, !tbaa !28
  br label %6

6:                                                ; preds = %Sorted_Next_Field.exit.i, %1
  %.0.i = phi ptr [ %3, %1 ], [ %9, %Sorted_Next_Field.exit.i ]
  br label %7

7:                                                ; preds = %7, %6
  %.0.i.i = phi ptr [ %.0.i, %6 ], [ %9, %7 ]
  %8 = getelementptr inbounds nuw i8, ptr %.0.i.i, i64 56
  %9 = load ptr, ptr %8, align 8, !tbaa !87
  %10 = getelementptr inbounds nuw i8, ptr %9, i64 48
  %11 = load i32, ptr %10, align 8, !tbaa !19
  %12 = and i32 %11, 3
  %13 = icmp eq i32 %12, 3
  %.not.i.i = icmp eq ptr %9, %.0.i
  %or.cond.i.i = or i1 %.not.i.i, %13
  br i1 %or.cond.i.i, label %Sorted_Next_Field.exit.i, label %7, !llvm.loop !110

Sorted_Next_Field.exit.i:                         ; preds = %7
  %14 = getelementptr inbounds nuw i8, ptr %9, i64 6
  %15 = load i16, ptr %14, align 2, !tbaa !28
  %.not.i = icmp eq i16 %15, %5
  br i1 %.not.i, label %Right_Neighbour_Field.exit, label %6, !llvm.loop !115

Right_Neighbour_Field.exit:                       ; preds = %Sorted_Next_Field.exit.i
  %16 = tail call i32 @_nc_Set_Current_Field(ptr noundef %0, ptr noundef nonnull %9)
  ret i32 %16
}